target datalayout = "e-m:e-p270:32:32-p271:32:32-p272:64:64-i64:64-i128:128-f80:128-n8:16:32:64-S128"
target triple = "x86_64-pc-linux-gnu"

%class.FakeRttiSupport = type <{ i64, i32, [4 x i8] }>
%class.G1BarrierSet = type { %class.CardTableBarrierSet, %"class.BufferNode::Allocator", %"class.BufferNode::Allocator", %class.G1SATBMarkQueueSet, %class.G1DirtyCardQueueSet }
%class.CardTableBarrierSet = type { %class.ModRefBarrierSet, i8, ptr }
%class.ModRefBarrierSet = type { %class.BarrierSet }
%class.BarrierSet = type { ptr, %class.FakeRttiSupport, ptr, ptr, ptr, ptr, ptr }
%"class.BufferNode::Allocator" = type { %"class.BufferNode::AllocatorConfig", %class.FreeListAllocator }
%"class.BufferNode::AllocatorConfig" = type { %class.FreeListConfig, i64 }
%class.FreeListConfig = type { ptr, i64 }
%class.FreeListAllocator = type { ptr, [120 x i8], i64, [120 x i8], %class.LockFreeStack, [120 x i8], i8, [127 x i8], i32, [2 x %"class.FreeListAllocator::PendingList"] }
%class.LockFreeStack = type { ptr }
%"class.FreeListAllocator::PendingList" = type { ptr, ptr, i64 }
%class.G1SATBMarkQueueSet = type { %class.SATBMarkQueueSet.base, [7 x i8] }
%class.SATBMarkQueueSet.base = type <{ %class.PtrQueueSet, [128 x i8], %class.PaddedEnd, i64, i64, i64, i8, [96 x i8] }>
%class.PtrQueueSet = type { ptr, ptr }
%class.PaddedEnd = type { %class.PaddedEndImpl }
%class.PaddedEndImpl = type { %class.LockFreeStack.7, [120 x i8] }
%class.LockFreeStack.7 = type { ptr }
%class.G1DirtyCardQueueSet = type { %class.PtrQueueSet, [128 x i8], i64, [120 x i8], i64, [120 x i8], %class.NonblockingQueue, [120 x i8], %"class.G1DirtyCardQueueSet::PausedBuffers", %class.G1FreeIdSet, %class.G1ConcurrentRefineStats, %class.G1ConcurrentRefineStats }
%class.NonblockingQueue = type { ptr, [120 x i8], ptr }
%"class.G1DirtyCardQueueSet::PausedBuffers" = type { ptr, [120 x i8] }
%class.G1FreeIdSet = type { %class.Semaphore, ptr, i32, i32, i64, i64 }
%class.Semaphore = type { %class.PosixSemaphore }
%class.PosixSemaphore = type { %union.sem_t }
%union.sem_t = type { i64, [24 x i8] }
%class.G1ConcurrentRefineStats = type { %class.TimeInterval, i64, i64, i64 }
%class.TimeInterval = type { %class.CompositeCounterRepresentation }
%class.CompositeCounterRepresentation = type { %class.Representation }
%class.Representation = type { %class.PairRep }
%class.PairRep = type { i64, i64 }
%class.G1ThreadLocalData = type { %class.SATBMarkQueue, %class.G1DirtyCardQueue, %class.G1RegionPinCache }
%class.SATBMarkQueue = type <{ %class.PtrQueue, i8, [7 x i8] }>
%class.PtrQueue = type { i64, ptr }
%class.G1DirtyCardQueue = type { %class.PtrQueue, ptr }
%class.G1RegionPinCache = type { i32, i64 }
%class.AdaptiveWeightedAverage = type { float, i32, i32, i8, float }
%class.Thread = type { %class.ThreadShadow.base, i64, [43 x i64], ptr, ptr, i32, ptr, i64, i64, %class.ThreadLocalAllocBuffer, i64, %class.ThreadHeapSampler, %class.ThreadStatisticalInfo, %class.JfrThreadLocal, ptr, ptr, ptr, ptr, ptr, ptr, i64, i32, i32, ptr, i32, i32, i32, i32, i8, ptr }
%class.ThreadShadow.base = type <{ ptr, ptr, ptr, i32 }>
%class.ThreadLocalAllocBuffer = type <{ ptr, ptr, ptr, ptr, ptr, i64, i64, i64, i64, i32, i32, i32, i32, i64, %class.AdaptiveWeightedAverage, [4 x i8] }>
%class.ThreadHeapSampler = type { i64 }
%class.ThreadStatisticalInfo = type { i64, i64 }
%class.JfrThreadLocal = type <{ ptr, ptr, ptr, ptr, ptr, ptr, ptr, ptr, ptr, ptr, %class.RefCountHandle, i64, i64, i64, i64, i64, i64, i64, i64, i64, i64, i64, i32, i32, i32, i16, i8, i8, i8, i8, i8, [5 x i8] }>
%class.RefCountHandle = type { ptr }

@_ZN10BarrierSet12_barrier_setE = external global ptr, align 8

; Function Attrs: mustprogress nounwind uwtable
define linkonce_odr hidden noundef ptr @_Z16barrier_set_castI12G1BarrierSetEPT_P10BarrierSet(ptr noundef %0) #1 comdat {
  %2 = alloca ptr, align 8
  store ptr %0, ptr %2, align 8
  %3 = load ptr, ptr %2, align 8
  ret ptr %3
}

; Function Attrs: mustprogress nounwind uwtable
define linkonce_odr hidden noundef ptr @_ZN10BarrierSet11barrier_setEv() #1 comdat align 2 {
  %1 = load ptr, ptr @_ZN10BarrierSet12_barrier_setE, align 8
  ret ptr %1
}

; Function Attrs: mustprogress nounwind uwtable
define linkonce_odr hidden noundef ptr @_ZN12G1BarrierSet14g1_barrier_setEv() #1 comdat align 2 {
  %1 = call noundef ptr @_ZN10BarrierSet11barrier_setEv()
  %2 = call noundef ptr @_Z16barrier_set_castI12G1BarrierSetEPT_P10BarrierSet(ptr noundef %1)
  ret ptr %2
}

; Function Attrs: mustprogress nounwind uwtable
define linkonce_odr hidden void @_ZN16G1RegionPinCacheC2Ev(ptr noundef nonnull align 8 dereferenceable(16) %0) unnamed_addr #1 comdat align 2 {
  %2 = alloca ptr, align 8
  store ptr %0, ptr %2, align 8
  %3 = load ptr, ptr %2, align 8
  %4 = getelementptr inbounds %class.G1RegionPinCache, ptr %3, i32 0, i32 0
  store i32 -1, ptr %4, align 8
  %5 = getelementptr inbounds %class.G1RegionPinCache, ptr %3, i32 0, i32 1
  store i64 0, ptr %5, align 8
  ret void
}

; Function Attrs: mustprogress nounwind uwtable
define linkonce_odr hidden noundef nonnull align 8 dereferenceable(928) ptr @_ZN12G1BarrierSet20dirty_card_queue_setEv() #1 comdat align 2 {
  %1 = call noundef ptr @_ZN12G1BarrierSet14g1_barrier_setEv()
  %2 = getelementptr inbounds %class.G1BarrierSet, ptr %1, i32 0, i32 4
  ret ptr %2
}

; Function Attrs: mustprogress nounwind uwtable
define linkonce_odr hidden noundef nonnull align 8 dereferenceable(393) ptr @_ZN12G1BarrierSet19satb_mark_queue_setEv() #1 comdat align 2 {
  %1 = call noundef ptr @_ZN12G1BarrierSet14g1_barrier_setEv()
  %2 = getelementptr inbounds %class.G1BarrierSet, ptr %1, i32 0, i32 3
  ret ptr %2
}

; Function Attrs: mustprogress nounwind uwtable
define linkonce_odr hidden noundef ptr @_ZN6Thread7gc_dataI17G1ThreadLocalDataEEPT_v(ptr noundef nonnull align 8 dereferenceable(888) %0) #1 comdat align 2 {
  %2 = alloca ptr, align 8
  store ptr %0, ptr %2, align 8
  %3 = load ptr, ptr %2, align 8
  %4 = getelementptr inbounds %class.Thread, ptr %3, i32 0, i32 2
  ret ptr %4
}

; Function Attrs: mustprogress nounwind uwtable
define linkonce_odr hidden void @_ZN17G1ThreadLocalDataC2Ev(ptr noundef nonnull align 8 dereferenceable(64) %0) unnamed_addr #1 comdat align 2 {
  %2 = alloca ptr, align 8
  store ptr %0, ptr %2, align 8
  %3 = load ptr, ptr %2, align 8
  %4 = getelementptr inbounds %class.G1ThreadLocalData, ptr %3, i32 0, i32 0
  %5 = call noundef nonnull align 8 dereferenceable(393) ptr @_ZN12G1BarrierSet19satb_mark_queue_setEv()
  call void @_ZN13SATBMarkQueueC1EP16SATBMarkQueueSet(ptr noundef nonnull align 8 dereferenceable(17) %4, ptr noundef %5)
  %6 = getelementptr inbounds %class.G1ThreadLocalData, ptr %3, i32 0, i32 1
  %7 = call noundef nonnull align 8 dereferenceable(928) ptr @_ZN12G1BarrierSet20dirty_card_queue_setEv()
  call void @_ZN16G1DirtyCardQueueC1EP19G1DirtyCardQueueSet(ptr noundef nonnull align 8 dereferenceable(24) %6, ptr noundef %7)
  %8 = getelementptr inbounds %class.G1ThreadLocalData, ptr %3, i32 0, i32 2
  call void @_ZN16G1RegionPinCacheC2Ev(ptr noundef nonnull align 8 dereferenceable(16) %8)
  ret void
}

; Function Attrs: mustprogress nounwind uwtable
define linkonce_odr hidden noundef ptr @_ZN17G1ThreadLocalData4dataEP6Thread(ptr noundef %0) #1 comdat align 2 {
  %2 = alloca ptr, align 8
  store ptr %0, ptr %2, align 8
  %3 = load ptr, ptr %2, align 8
  %4 = call noundef ptr @_ZN6Thread7gc_dataI17G1ThreadLocalDataEEPT_v(ptr noundef nonnull align 8 dereferenceable(888) %3)
  ret ptr %4
}

; Function Attrs: mustprogress nounwind uwtable
define linkonce_odr hidden void @_ZN17G1ThreadLocalData6createEP6Thread(ptr noundef %0) #1 comdat align 2 {
  %2 = alloca ptr, align 8
  store ptr %0, ptr %2, align 8
  %3 = load ptr, ptr %2, align 8
  %4 = call noundef ptr @_ZN17G1ThreadLocalData4dataEP6Thread(ptr noundef %3)
  call void @_ZN17G1ThreadLocalDataC2Ev(ptr noundef nonnull align 8 dereferenceable(64) %4)
  ret void
}

; Function Attrs: mustprogress nounwind uwtable
define hidden void @_ZN12G1BarrierSet16on_thread_createEP6Thread(ptr noundef nonnull align 8 dereferenceable(2592) %0, ptr noundef %1) unnamed_addr #1 align 2 {
  %3 = alloca ptr, align 8
  %4 = alloca ptr, align 8
  store ptr %0, ptr %3, align 8
  store ptr %1, ptr %4, align 8
  %5 = load ptr, ptr %4, align 8
  call void @_ZN17G1ThreadLocalData6createEP6Thread(ptr noundef %5)
  ret void
}