; Function Attrs: mustprogress nounwind uwtable
define hidden void @_ZN12G1BarrierSet16on_thread_createEP6Thread(ptr nocapture nonnull readnone align 8 %0, ptr noundef %1) unnamed_addr #0 align 2 {
  %3 = getelementptr inbounds i8, ptr %1, i64 40
  %4 = load ptr, ptr @_ZN10BarrierSet12_barrier_setE, align 8
  %5 = getelementptr inbounds i8, ptr %4, i64 1264
  tail call void @_ZN13SATBMarkQueueC1EP16SATBMarkQueueSet(ptr noundef nonnull align 8 dereferenceable(17) %3, ptr noundef nonnull %5) #9
  %6 = getelementptr inbounds i8, ptr %1, i64 64
  %7 = load ptr, ptr @_ZN10BarrierSet12_barrier_setE, align 8
  %8 = getelementptr inbounds i8, ptr %7, i64 1664
  tail call void @_ZN16G1DirtyCardQueueC1EP19G1DirtyCardQueueSet(ptr noundef nonnull align 8 dereferenceable(24) %6, ptr noundef nonnull %8) #9
  %9 = getelementptr inbounds i8, ptr %1, i64 88
  store i32 -1, ptr %9, align 8
  %10 = getelementptr inbounds i8, ptr %1, i64 96
  store i64 0, ptr %10, align 8
  ret void
}